target datalayout = "e-m:e-p270:32:32-p271:32:32-p272:64:64-i64:64-i128:128-f80:128-n8:16:32:64-S128"
target triple = "x86_64-pc-linux-gnu"

%struct.OnigSyntaxType = type { i32, i32, i32, i32, %struct.OnigMetaCharTableType }
%struct.OnigMetaCharTableType = type { i32, i32, i32, i32, i32, i32 }
%struct.ScanEnv = type { i32, i32, ptr, ptr, i32, i32, i32, i32, ptr, ptr, ptr, ptr, ptr, ptr, i32, i32, i32, i32, [8 x ptr], ptr, i32, i32, ptr, i32 }

@onig_warn = internal global ptr @onig_null_warn, align 8
@.str.7 = private unnamed_addr constant [37 x i8] c"character class has duplicated range\00", align 1

; Function Attrs: inlinehint nounwind sspstrong willreturn memory(none) uwtable
define internal zeroext i1 @RB_TEST(i64 noundef %0) #11 {
  %2 = alloca i64, align 8
  store i64 %0, ptr %2, align 8, !tbaa !15
  %3 = load i64, ptr %2, align 8, !tbaa !15
  %4 = and i64 %3, -5
  %5 = icmp ne i64 %4, 0
  ret i1 %5
}

; Function Attrs: nounwind sspstrong uwtable
define internal void @CC_DUP_WARN(ptr noundef %0, i32 noundef %1, i32 noundef %2) #0 {
  %4 = alloca ptr, align 8
  %5 = alloca i32, align 4
  %6 = alloca i32, align 4
  store ptr %0, ptr %4, align 8, !tbaa !12
  store i32 %1, ptr %5, align 4, !tbaa !13
  store i32 %2, ptr %6, align 4, !tbaa !13
  %7 = load ptr, ptr @onig_warn, align 8, !tbaa !12
  %8 = icmp eq ptr %7, @onig_null_warn
  br i1 %8, label %13, label %9

9:                                                ; preds = %3
  %10 = call ptr @rb_ruby_verbose_ptr()
  %11 = load i64, ptr %10, align 8, !tbaa !15
  %12 = call zeroext i1 @RB_TEST(i64 noundef %11) #17
  br i1 %12, label %14, label %13

13:                                               ; preds = %9, %3
  br label %34

14:                                               ; preds = %9
  %15 = load ptr, ptr %4, align 8, !tbaa !12
  %16 = getelementptr inbounds nuw %struct.ScanEnv, ptr %15, i32 0, i32 3
  %17 = load ptr, ptr %16, align 8, !tbaa !99
  %18 = getelementptr inbounds nuw %struct.OnigSyntaxType, ptr %17, i32 0, i32 2
  %19 = load i32, ptr %18, align 4, !tbaa !65
  %20 = and i32 %19, 67108864
  %21 = icmp ne i32 %20, 0
  br i1 %21, label %22, label %34

22:                                               ; preds = %14
  %23 = load ptr, ptr %4, align 8, !tbaa !12
  %24 = getelementptr inbounds nuw %struct.ScanEnv, ptr %23, i32 0, i32 21
  %25 = load i32, ptr %24, align 4, !tbaa !117
  %26 = and i32 %25, 67108864
  %27 = icmp ne i32 %26, 0
  br i1 %27, label %34, label %28

28:                                               ; preds = %22
  %29 = load ptr, ptr %4, align 8, !tbaa !12
  %30 = getelementptr inbounds nuw %struct.ScanEnv, ptr %29, i32 0, i32 21
  %31 = load i32, ptr %30, align 4, !tbaa !117
  %32 = or i32 %31, 67108864
  store i32 %32, ptr %30, align 4, !tbaa !117
  %33 = load ptr, ptr %4, align 8, !tbaa !12
  call void (ptr, ptr, ...) @onig_syntax_warn(ptr noundef %33, ptr noundef @.str.7)
  br label %34

34:                                               ; preds = %13, %28, %22, %14
  ret void
}

; Function Attrs: nounwind sspstrong uwtable
define internal void @bitset_set_range(ptr noundef %0, ptr noundef %1, i32 noundef %2, i32 noundef %3) #0 {
  %5 = alloca ptr, align 8
  %6 = alloca ptr, align 8
  %7 = alloca i32, align 4
  %8 = alloca i32, align 4
  %9 = alloca i32, align 4
  store ptr %0, ptr %5, align 8, !tbaa !12
  store ptr %1, ptr %6, align 8, !tbaa !45
  store i32 %2, ptr %7, align 4, !tbaa !13
  store i32 %3, ptr %8, align 4, !tbaa !13
  call void @llvm.lifetime.start.p0(i64 4, ptr %9) #13
  %10 = load i32, ptr %7, align 4, !tbaa !13
  store i32 %10, ptr %9, align 4, !tbaa !13
  br label %11

11:                                               ; preds = %50, %4
  %12 = load i32, ptr %9, align 4, !tbaa !13
  %13 = load i32, ptr %8, align 4, !tbaa !13
  %14 = icmp sle i32 %12, %13
  br i1 %14, label %15, label %18

15:                                               ; preds = %11
  %16 = load i32, ptr %9, align 4, !tbaa !13
  %17 = icmp slt i32 %16, 256
  br label %18

18:                                               ; preds = %15, %11
  %19 = phi i1 [ false, %11 ], [ %17, %15 ]
  br i1 %19, label %20, label %53

20:                                               ; preds = %18
  br label %21

21:                                               ; preds = %20
  %22 = load ptr, ptr %6, align 8, !tbaa !45
  %23 = load i32, ptr %9, align 4, !tbaa !13
  %24 = sdiv i32 %23, 32
  %25 = sext i32 %24 to i64
  %26 = getelementptr i32, ptr %22, i64 %25
  %27 = load i32, ptr %26, align 4, !tbaa !13
  %28 = load i32, ptr %9, align 4, !tbaa !13
  %29 = srem i32 %28, 32
  %30 = shl i32 1, %29
  %31 = and i32 %27, %30
  %32 = icmp ne i32 %31, 0
  br i1 %32, label %33, label %37

33:                                               ; preds = %21
  %34 = load ptr, ptr %5, align 8, !tbaa !12
  %35 = load i32, ptr %9, align 4, !tbaa !13
  %36 = load i32, ptr %9, align 4, !tbaa !13
  call void @CC_DUP_WARN(ptr noundef %34, i32 noundef %35, i32 noundef %36)
  br label %37

37:                                               ; preds = %33, %21
  %38 = load i32, ptr %9, align 4, !tbaa !13
  %39 = srem i32 %38, 32
  %40 = shl i32 1, %39
  %41 = load ptr, ptr %6, align 8, !tbaa !45
  %42 = load i32, ptr %9, align 4, !tbaa !13
  %43 = sdiv i32 %42, 32
  %44 = sext i32 %43 to i64
  %45 = getelementptr i32, ptr %41, i64 %44
  %46 = load i32, ptr %45, align 4, !tbaa !13
  %47 = or i32 %46, %40
  store i32 %47, ptr %45, align 4, !tbaa !13
  br label %48

48:                                               ; preds = %37
  br label %49

49:                                               ; preds = %48
  br label %50

50:                                               ; preds = %49
  %51 = load i32, ptr %9, align 4, !tbaa !13
  %52 = add i32 %51, 1
  store i32 %52, ptr %9, align 4, !tbaa !13
  br label %11, !llvm.loop !177

53:                                               ; preds = %18
  call void @llvm.lifetime.end.p0(i64 4, ptr %9) #13
  ret void
}