; Function Attrs: nounwind sspstrong uwtable
define internal fastcc void @bitset_set_range(ptr noundef captures(none) %0, ptr noundef nonnull captures(none) %1, i32 noundef %2, i32 noundef %3) unnamed_addr #5 {
  %5 = icmp sle i32 %2, %3
  %6 = icmp slt i32 %2, 256
  %7 = and i1 %5, %6
  br i1 %7, label %.lr.ph, label %._crit_edge

.lr.ph:                                           ; preds = %4
  %8 = getelementptr inbounds nuw i8, ptr %0, i64 16
  %9 = getelementptr inbounds nuw i8, ptr %0, i64 180
  %invariant.smin = tail call i32 @llvm.smin.i32(i32 %3, i32 255)
  br label %10

10:                                               ; preds = %.lr.ph, %CC_DUP_WARN.exit
  %.014 = phi i32 [ %2, %.lr.ph ], [ %36, %CC_DUP_WARN.exit ]
  %11 = sdiv i32 %.014, 32
  %12 = sext i32 %11 to i64
  %13 = getelementptr i32, ptr %1, i64 %12
  %14 = load i32, ptr %13, align 4, !tbaa !11
  %15 = and i32 %.014, 31
  %16 = shl nuw i32 1, %15
  %17 = and i32 %14, %16
  %.not = icmp eq i32 %17, 0
  %18 = load ptr, ptr @onig_warn, align 8
  %19 = icmp eq ptr %18, @onig_null_warn
  %or.cond = select i1 %.not, i1 true, i1 %19
  br i1 %or.cond, label %CC_DUP_WARN.exit, label %20

20:                                               ; preds = %10
  %21 = tail call ptr @rb_ruby_verbose_ptr() #25
  %22 = load i64, ptr %21, align 8, !tbaa !54
  %23 = and i64 %22, -5
  %.not5.i = icmp eq i64 %23, 0
  br i1 %.not5.i, label %CC_DUP_WARN.exit, label %24

24:                                               ; preds = %20
  %25 = load ptr, ptr %8, align 8, !tbaa !85
  %26 = getelementptr inbounds nuw i8, ptr %25, i64 8
  %27 = load i32, ptr %26, align 4, !tbaa !58
  %28 = and i32 %27, 67108864
  %.not.i = icmp eq i32 %28, 0
  br i1 %.not.i, label %CC_DUP_WARN.exit, label %29

29:                                               ; preds = %24
  %30 = load i32, ptr %9, align 4, !tbaa !124
  %31 = and i32 %30, 67108864
  %.not4.i = icmp eq i32 %31, 0
  br i1 %.not4.i, label %32, label %CC_DUP_WARN.exit

32:                                               ; preds = %29
  %33 = or disjoint i32 %30, 67108864
  store i32 %33, ptr %9, align 4, !tbaa !124
  tail call void (ptr, ptr, ...) @onig_syntax_warn(ptr noundef nonnull %0, ptr noundef nonnull @.str.7)
  br label %CC_DUP_WARN.exit

CC_DUP_WARN.exit:                                 ; preds = %32, %29, %24, %20, %10
  %34 = load i32, ptr %13, align 4, !tbaa !11
  %35 = or i32 %34, %16
  store i32 %35, ptr %13, align 4, !tbaa !11
  %36 = add nsw i32 %.014, 1
  %37 = icmp slt i32 %.014, %invariant.smin
  br i1 %37, label %10, label %._crit_edge, !llvm.loop !125

._crit_edge:                                      ; preds = %CC_DUP_WARN.exit, %4
  ret void
}